target datalayout = "e-m:e-p270:32:32-p271:32:32-p272:64:64-i64:64-i128:128-f80:128-n8:16:32:64-S128"
target triple = "x86_64-pc-linux-gnu"

%struct.WebPPicture = type { i32, i32, i32, i32, ptr, ptr, ptr, i32, i32, ptr, i32, [2 x i32], ptr, i32, [3 x i32], ptr, ptr, i32, ptr, ptr, i32, ptr, ptr, [3 x i32], ptr, ptr, [8 x i32], ptr, ptr, [2 x ptr] }

; Function Attrs: nounwind uwtable
define i32 @WebPPictureIsView(ptr noundef %0) #0 {
  %2 = alloca i32, align 4
  %3 = alloca ptr, align 8
  store ptr %0, ptr %3, align 8, !tbaa !3
  %4 = load ptr, ptr %3, align 8, !tbaa !3
  %5 = icmp eq ptr %4, null
  br i1 %5, label %6, label %7

6:                                                ; preds = %1
  store i32 0, ptr %2, align 4
  br label %24

7:                                                ; preds = %1
  %8 = load ptr, ptr %3, align 8, !tbaa !3
  %9 = getelementptr inbounds nuw %struct.WebPPicture, ptr %8, i32 0, i32 0
  %10 = load i32, ptr %9, align 8, !tbaa !8
  %11 = icmp ne i32 %10, 0
  br i1 %11, label %12, label %18

12:                                               ; preds = %7
  %13 = load ptr, ptr %3, align 8, !tbaa !3
  %14 = getelementptr inbounds nuw %struct.WebPPicture, ptr %13, i32 0, i32 28
  %15 = load ptr, ptr %14, align 8, !tbaa !32
  %16 = icmp eq ptr %15, null
  %17 = zext i1 %16 to i32
  store i32 %17, ptr %2, align 4
  br label %24

18:                                               ; preds = %7
  %19 = load ptr, ptr %3, align 8, !tbaa !3
  %20 = getelementptr inbounds nuw %struct.WebPPicture, ptr %19, i32 0, i32 27
  %21 = load ptr, ptr %20, align 8, !tbaa !33
  %22 = icmp eq ptr %21, null
  %23 = zext i1 %22 to i32
  store i32 %23, ptr %2, align 4
  br label %24

24:                                               ; preds = %18, %12, %6
  %25 = load i32, ptr %2, align 4
  ret i32 %25
}