; Function Attrs: mustprogress nofree norecurse nosync nounwind willreturn memory(argmem: read) uwtable
define range(i32 0, 2) i32 @WebPPictureIsView(ptr noundef readonly captures(address_is_null) %0) local_unnamed_addr #2 {
  %2 = icmp eq ptr %0, null
  br i1 %2, label %8, label %.sink.split

.sink.split:                                      ; preds = %1
  %3 = load i32, ptr %0, align 8, !tbaa !17
  %.not = icmp eq i32 %3, 0
  %. = select i1 %.not, i64 224, i64 232
  %4 = getelementptr inbounds nuw i8, ptr %0, i64 %.
  %5 = load ptr, ptr %4, align 8, !tbaa !14
  %6 = icmp eq ptr %5, null
  %7 = zext i1 %6 to i32
  br label %8

8:                                                ; preds = %.sink.split, %1
  %.0.shrunk = phi i32 [ 0, %1 ], [ %7, %.sink.split ]
  ret i32 %.0.shrunk
}